(dp1
S'nume'
p2
S'CHAR(512)'
p3
sS'descriere'
p4
S'CHAR(512)'
p5
sS'chestionar'
p6
S'INTEGER REFERENCES chestionar(id) ON DELETE CASCADE'
p7
sS'id'
p8
S'INTEGER PRIMARY KEY AUTOINCREMENT'
p9
sS'row'
p10
S'INTEGER'
p11
s.