(dp1
S'chestionar'
p2
S'INTEGER REFERENCES chestionar(id) ON DELETE CASCADE'
p3
sS'continut'
p4
S'CHAR(512) UNIQUE'
p5
sS'evaluare'
p6
S'CHAR(512)'
p7
sS'numar'
p8
S'INTEGER UNIQUE'
p9
sS'id'
p10
S'INTEGER PRIMARY KEY AUTOINCREMENT'
p11
s.