(dp1
S'lista'
p2
S'TEXT'
p3
sS'chestionar'
p4
S'INTEGER REFERENCES chestionar(id) ON DELETE CASCADE'
p5
sS'id'
p6
S'INTEGER PRIMARY KEY AUTOINCREMENT'
p7
sS'user'
p8
S'INTEGER REFERENCES auth_user(id) ON DELETE CASCADE'
p9
s.