(dp1
S'output'
p2
S''
sS'layer'
p3
S'/Volumes/650Gb HD/web2py/web2py.app/Contents/Resources/applications/daruri/views/default/index.html'
p4
sS'code'
p5
S'response.write(\'<!DOCTYPE html>\\n<html lang="\', escape=False)\nresponse.write(T.accepted_language or \'en\')\nresponse.write(\'" class="no-js"><!-- no-js need it for modernzr -->\\n  <head>\\n    \\n    <meta charset="utf-8" />\\t  \\t\\n    <!-- www.phpied.com/conditional-comments-block-downloads/ -->\\n    <!--[if IE]><![endif]-->    \\n    <!-- Always force latest IE rendering engine \\n\\t (even in intranet) & Chrome Frame \\n\\t Remove this if you use the .htaccess -->\\n    <meta http-equiv="X-UA-Compatible" content="IE=edge,chrome=1">\\n    \\n    <title>\', escape=False)\nresponse.write(response.title or request.application)\nresponse.write(\'</title>\\n    \\n    <!-- http://dev.w3.org/html5/markup/meta.name.html -->\\n    <meta name="application-name" content="\', escape=False)\nresponse.write(request.application)\nresponse.write(\'" />\\t\\n    \\n    <!-- Speaking of Google, don\\\'t forget to set your site up: \\n\\t http://google.com/webmasters -->\\n    <meta name="google-site-verification" content="" />\\n    \\n    <!--  Mobile Viewport Fix\\n\\t  j.mp/mobileviewport & davidbcalhoun.com/2010/viewport-metatag \\n\\t  device-width: Occupy full width of the screen in its current orientation\\n\\t  initial-scale = 1.0 retains dimensions instead of zooming out if page height > device height\\n\\t  maximum-scale = 1.0 retains dimensions instead of zooming in if page width < device width\\n      -->\\n    <meta name="viewport" content="width=device-width; initial-scale=1.0; maximum-scale=1.0;">\\n    \\n    <!-- Place favicon.ico and apple-touch-icon.png in the root of your domain and delete these references -->\\n    <link rel="shortcut icon" href="\', escape=False)\nresponse.write(URL(\'static\',\'favicon.ico\'))\nresponse.write(\'" type="image/x-icon">\\n    <link rel="apple-touch-icon" href="\', escape=False)\nresponse.write(URL(\'static\',\'favicon.png\'))\nresponse.write(\'">\\n\\n    <!-- For the less-enabled mobile browsers like Opera Mini -->\\n    <link rel="stylesheet" media="handheld" href="\', escape=False)\nresponse.write(URL(\'static\',\'css/handheld.css\'))\nresponse.write(\'">\\n    \\n    <!-- All JavaScript at the bottom, except for Modernizr which enables HTML5 elements & feature detects -->\\n    <script src="\', escape=False)\nresponse.write(URL(\'static\',\'js/modernizr-1.6.min.js\'))\nresponse.write(\'"></script>\\n    \\n    \', escape=False)\n#------  require CSS and JS files for this page (read info in base.css) ------\nresponse.write(\'\\n    \', escape=False)\nresponse.files.append(URL(\'static\',\'css/base.css\'))\nresponse.write(\'\\n    \', escape=False)\nresponse.files.append(URL(\'static\',\'css/superfish.css\'))\nresponse.write(\'\\n    \', escape=False)\nresponse.files.append(URL(\'static\',\'js/superfish.js\'))\nresponse.write(\'\\n    \', escape=False)\n#------ include web2py specific js code (jquery, calendar, form stuff) ------\nresponse.write(\'\\n    \', escape=False)\nresponse.files.insert(0,URL(\'static\',\'js/jquery.js\'))\nresponse.files.insert(1,URL(\'static\',\'css/calendar.css\'))\nresponse.files.insert(2,URL(\'static\',\'js/calendar.js\'))\nfor _item in response.meta or []:\n    response.write(\'\\n     <meta name="\', escape=False)\n    response.write(_item)\n    response.write(\'" content="\', escape=False)\n    response.write(response.meta[_item])\n    response.write(\'" />\', escape=False)\n    pass\nfor _k,_file in enumerate(response.files or []):\n    if _file in response.files[:_k]:\n        continue\n    _file0=_file.lower().split(\'?\')[0]\n    if _file0.endswith(\'.css\'):\n        response.write(\'\\n     <link href="\', escape=False)\n        response.write(_file)\n        response.write(\'" rel="stylesheet" type="text/css" />\', escape=False)\n    elif _file0.endswith(\'.js\'):\n        response.write(\'\\n     <script src="\', escape=False)\n        response.write(_file)\n        response.write(\'" type="text/javascript"></script>\', escape=False)\n        pass\n    pass\nresponse.write(\'\\n  \\n<script type="text/javascript"><!--\\nfunction popup(url) {\\n  newwindow=window.open(url,\\\'name\\\',\\\'height=400,width=600\\\');\\n  if (window.focus) newwindow.focus();\\n  return false;\\n}\\nfunction collapse(id) { jQuery(\\\'#\\\'+id).slideToggle(); }\\nfunction fade(id,value) { if(value>0) jQuery(\\\'#\\\'+id).hide().fadeIn(\\\'slow\\\'); else jQuery(\\\'#\\\'+id).show().fadeOut(\\\'slow\\\'); }\\nfunction ajax(u,s,t) {\\n    query = \\\'\\\';\\n    if (typeof s == "string") {\\n        d = jQuery(s).serialize();\\n        if(d){ query = d; }\\n    } else {\\n        pcs = [];\\n        for(i=0; i<s.length; i++) {\\n            q = jQuery("[name="+s[i]+"]").serialize();\\n            if(q){pcs.push(q);}\\n        }\\n        if (pcs.length>0){query = pcs.join("&");}\\n    }\\n    jQuery.ajax({type: "POST", url: u, data: query, success: function(msg) { if(t) { if(t==\\\':eval\\\') eval(msg); else jQuery("#" + t).html(msg); } } }); \\n}\\n\\nString.prototype.reverse = function () { return this.split(\\\'\\\').reverse().join(\\\'\\\');};\\nfunction web2py_ajax_init() {\\n  jQuery(\\\'.hidden\\\').hide();\\n  jQuery(\\\'.error\\\').hide().slideDown(\\\'slow\\\');\\n  jQuery(\\\'.flash\\\').click(function() { jQuery(this).fadeOut(\\\'slow\\\'); return false; });\\n  // jQuery(\\\'input[type=submit]\\\').click(function(){var t=jQuery(this);t.hide();t.after(\\\'<input class="submit_disabled" disabled="disabled" type="submit" name="\\\'+t.attr("name")+\\\'_dummy" value="\\\'+t.val()+\\\'">\\\')});\\n  jQuery(\\\'input.integer\\\').live(\\\'keyup\\\', function(){this.value=this.value.reverse().replace(/[^0-9\\\\-]|\\\\-(?=.)/g,\\\'\\\').reverse();});\\n  jQuery(\\\'input.double,input.decimal\\\').live(\\\'keyup\\\', function(){this.value=this.value.reverse().replace(/[^0-9\\\\-\\\\.]|[\\\\-](?=.)|[\\\\.](?=[0-9]*[\\\\.])/g,\\\'\\\').reverse();});\\n  jQuery("input[type=\\\'checkbox\\\'].delete").live(\\\'click\\\', function(){ if(this.checked) if(!confirm("\', escape=False)\nresponse.write(T(\'Sure you want to delete this object?\'))\nresponse.write(\'")) this.checked=false; });\\n  try {jQuery("input.date").live(\\\'focus\\\',function() {Calendar.setup({\\n     inputField:this, ifFormat:"\', escape=False)\nresponse.write(T(\'%Y-%m-%d\'))\nresponse.write(\'", showsTime:false\\n  }); }); } catch(e) {};\\n  try { jQuery("input.datetime").live(\\\'focus\\\', function() {Calendar.setup({\\n     inputField:this, ifFormat:"\', escape=False)\nresponse.write(T(\'%Y-%m-%d %H:%M:%S\'))\nresponse.write(\'", showsTime: true,timeFormat: "24"\\n  }); }); } catch(e) {};\\n\\n  jQuery("input.time").live(\\\'focus\\\', function() { var el = jQuery(this); \\n          if (!el.hasClass(\\\'hasTimeEntry\\\')) try { el.timeEntry(); } catch(e) {}; \\n  });\\n};\\n\\njQuery(document).ready(function() {   \\n   var flash = jQuery(\\\'.flash\\\');\\n   flash.hide();\\n   if(flash.html()) flash.slideDown();\\n   web2py_ajax_init();\\n});\\nfunction web2py_trap_form(action,target) {\\n   jQuery(\\\'#\\\'+target+\\\' form\\\').each(function(i){\\n      var form=jQuery(this);\\n      if(!form.hasClass(\\\'no_trap\\\'))\\n        form.submit(function(obj){\\n         jQuery(\\\'.flash\\\').hide().html(\\\'\\\');\\n         web2py_ajax_page(\\\'post\\\',action,form.serialize(),target);\\n         return false;\\n      });\\n   });\\n}\\nfunction web2py_ajax_page(method,action,data,target) {\\n  jQuery.ajax({\\\'type\\\':method,\\\'url\\\':action,\\\'data\\\':data,\\n    \\\'beforeSend\\\':function(xhr) {\\n      xhr.setRequestHeader(\\\'web2py-component-location\\\',document.location);\\n      xhr.setRequestHeader(\\\'web2py-component-element\\\',target);},\\n    \\\'complete\\\':function(xhr,text){\\n      var html=xhr.responseText;\\n      var content=xhr.getResponseHeader(\\\'web2py-component-content\\\'); \\n      var command=xhr.getResponseHeader(\\\'web2py-component-command\\\');\\n      var flash=xhr.getResponseHeader(\\\'web2py-component-flash\\\');\\n      var t = jQuery(\\\'#\\\'+target);\\n      if(content==\\\'prepend\\\') t.prepend(html); \\n      else if(content==\\\'append\\\') t.append(html);\\n      else if(content!=\\\'hide\\\') t.html(html);  \\n      web2py_trap_form(action,target);\\n      web2py_ajax_init();      \\n      if(command) eval(command);\\n      if(flash) jQuery(\\\'.flash\\\').html(flash).slideDown();\\n      }\\n    });\\n}\\nfunction web2py_component(action,target) {\\n  jQuery(document).ready(function(){ web2py_ajax_page(\\\'get\\\',action,null,target); });\\n}\\nfunction web2py_comet(url,onmessage,onopen,onclose) {\\n  if ("WebSocket" in window) {\\n    var ws = new WebSocket(url);\\n    ws.onopen = onopen?onopen:(function(){});\\n    ws.onmessage = onmessage;\\n    ws.onclose = onclose?onclose:(function(){});\\n    return true; // supported\\n  } else return false; // not supported\\n}\\n//--></script>\\n\', escape=False)\nresponse.write(\'\\n\\n    \', escape=False)\n#using sidebars need to know what sidebar you want to use\n#prior of using it, because of static width size of content, you can use\n#left_sidebar, right_sidebar, both or none (False left and right)\nleft_sidebar_enabled = globals().get(\'left_sidebar_enabled\',False)\nright_sidebar_enabled = globals().get(\'right_sidebar_enabled\',False)\nif left_sidebar_enabled and right_sidebar_enabled: width_content=\'63%\'\nelif left_sidebar_enabled != right_sidebar_enabled: width_content=\'740px\'\nelse: width_content=\'100%\'\nif left_sidebar_enabled: left_sidebar_style = \'style="display: block;"\'\nelse: left_sidebar_style = \'style="display: none;"\'\nif right_sidebar_enabled: right_sidebar_style = \'style="display: block;"\'\nelse: right_sidebar_style = \'style="display: none;"\'\nstyle_content = \'style="width: %s"\' % width_content\nresponse.write(\'\\n  </head>\\n  \\n  <!-- paulirish.com/2008/conditional-stylesheets-vs-css-hacks-answer-neither/ -->\\t\\n  <!--[if lt IE 7 ]> <body class="ie6"> <![endif]-->\\n  <!--[if IE 7 ]>    <body class="ie7"> <![endif]-->\\n  <!--[if IE 8 ]>    <body class="ie8"> <![endif]-->\\n  <!--[if IE 9 ]>    <body class="ie9"> <![endif]-->\\n  <!--[if (gt IE 9)|!(IE)]><!--> <body> <!--<![endif]-->\\n    \\n    <div class="flash">\', escape=False)\nresponse.write(response.flash or \'\')\nresponse.write(\'</div> <!-- notification div -->\\n    \\n    <div id="container">\\t      \\t\\t      \\t\\n      \\n      <div id="wrapper">\\t\\t\\n\\t\\n\\t<div id="header"> <!-- header and login nav -->\\n\\t  \', escape=False)\nresponse.write(\' <!-- this is default header -->\\n\\t  \', escape=False)\ntry:\n    response.write(auth.navbar(action=URL(\'default\',\'user\')))\nexcept:pass\nresponse.write(\'\\t\\t          \\n\\t  <div id="logo"><!-- put your logo here --></div>\\n\\t  <div style="clear: both;"></div><!-- Clear the divs -->\\n\\t  \', escape=False)\nresponse.write(\'\\t\\t\\t\\t  \\t\\t\\t\\t\\t  \\n\\t</div><!-- header  -->\\n\\t\\n\\t<div id="statusbar"><!-- statusbar is menu zone -->\\n\\t  \', escape=False)\nresponse.write(\' <!-- this is default statusbar -->\\n\\t  \', escape=False)\n#------ superfish menu ------\nresponse.write(\'\\n\\t  \', escape=False)\nresponse.write(MENU(response.menu,_class=\'sf-menu\'))\nresponse.write(\'\\n\\t  <script type="text/javascript">\\n\\t    jQuery(document).ready(function(){\\n\\t    jQuery(\\\'ul.sf-menu\\\').superfish();});\\n\\t  </script>\\n\\t  <div style="clear: both;"></div><!-- Clear the divs -->\\t\\n\\t  \', escape=False)\nresponse.write(\'\\t\\t\\t\\t\\n\\t</div><!-- statusbar -->\\n\\t\\n\\t<div id="page"> <!-- Here my central body -->\\t  \\n\\n\\t  \', escape=False)\nif left_sidebar_enabled:\n    response.write(\'\\n          <div id="left_sidebar" \', escape=False)\n    response.write(XML(left_sidebar_style))\n    response.write(\' >\\n            <div style="padding: 4px;">\\n\\t      \', escape=False)\n    response.write(\'Content Left Sidebar\', escape=False)\n    response.write(\'\\t\\t  \\n            </div>\\n          </div><!-- left_sidebar -->\\n\\t  \', escape=False)\n    pass\nresponse.write(\'\\n\\n\\t  <!-- content -->\\n\\t  <div id="content" \', escape=False)\nresponse.write(XML(style_content))\nresponse.write(\' >\\n\\t    \', escape=False)\nresponse.write(\'\\n\\n<h1>Intrebarea \', escape=False)\nresponse.write(intrebare.numar)\nresponse.write(\'</h1>\\n\\n\', escape=False)\nresponse.write(form)\nresponse.write(\'\\n\\n<a href="\', escape=False)\nresponse.write(URL(\'index\', args=curent+1))\nresponse.write(\'">Urmatoarea</a>\\n\', escape=False)\nresponse.write(\'\\t\\n\\t  </div>\\n\\t  <!-- content -->\\n\\n\\t  \', escape=False)\nif right_sidebar_enabled:\n    response.write(\'\\n          <div id="right_sidebar" \', escape=False)\n    response.write(XML(right_sidebar_style))\n    response.write(\' >\\n            <div style="padding: 4px;">\\n              \', escape=False)\n    response.write(\'Content Right Sidebar\', escape=False)\n    response.write(\'\\n            </div>\\n\\t  </div><!-- right_sidebar -->\\n          \', escape=False)\n    pass\nresponse.write(\'\\n\\n\\n\\t  <div style="clear: both;"></div><!-- Clear the divs -->\\n\\t  \\n\\t</div><!-- page -->\\t\\t\\t\\t\\t\\t\\t\\n\\t\\n\\t<div id="footer">\\n\\t  \', escape=False)\nresponse.write(\' <!-- this is default footer -->\\n\\t  <a href="http://www.web2py.com/" style="float: left; padding-right: 6px;">\\n\\t    <img src="\', escape=False)\nresponse.write(URL(\'static\',\'images/poweredby.png\'))\nresponse.write(\'"/>\\n\\t  </a>\\n\\t  \', escape=False)\nresponse.write(T(\'Copyright\'))\nresponse.write(\' &#169; 2010\\t\\t\\t\\t\\n\\t  <div style="clear: both;"></div><!-- Clear the divs -->\\n\\t  \', escape=False)\nresponse.write(\'\\n\\n\\t</div><!-- footer -->\\t\\t\\t\\n      </div><!-- wrapper -->\\n    </div><!-- container -->\\t\\t\\n    \\n    <!--[if lt IE 7 ]>\\n\\t<script src="\', escape=False)\nresponse.write(URL(\'static\',\'js/dd_belatedpng.js\'))\nresponse.write(\'"></script>\\n\\t<script> DD_belatedPNG.fix(\\\'img, .png_bg\\\'); //fix any <img> or .png_bg background-images </script>\\n\\t<![endif]-->\\n    \\n    <!-- asynchronous google analytics: mathiasbynens.be/notes/async-analytics-snippet \\n\\t change the UA-XXXXX-X to be your site\\\'s ID -->\\n    <!--   \\n\\t   <script>\\n\\t     var _gaq = [[\\\'_setAccount\\\', \\\'UA-XXXXX-X\\\'], [\\\'_trackPageview\\\']];\\n\\t     (function(d, t) {\\n\\t     var g = d.createElement(t),\\n\\t     s = d.getElementsByTagName(t)[0];\\n\\t     g.async = true;\\n\\t     g.src = \\\'//www.google-analytics.com/ga.js\\\';\\n\\t     s.parentNode.insertBefore(g, s);\\n\\t     })(document, \\\'script\\\');\\n\\t   </script>\\n\\t   -->    \\n  </body>\\n</html>\\n\', escape=False)'
p6
sS'snapshot'
p7
(dp8
S'exception'
p9
(dp10
S'__hash__'
p11
S"<method-wrapper '__hash__' of exceptions.TypeError object at 0x3452ee0>"
p12
sS'__setattr__'
p13
S"<method-wrapper '__setattr__' of exceptions.TypeError object at 0x3452ee0>"
p14
sS'__reduce_ex__'
p15
S'<built-in method __reduce_ex__ of exceptions.TypeError object at 0x3452ee0>'
p16
sS'__getslice__'
p17
S"<method-wrapper '__getslice__' of exceptions.TypeError object at 0x3452ee0>"
p18
sS'__getitem__'
p19
S"<method-wrapper '__getitem__' of exceptions.TypeError object at 0x3452ee0>"
p20
sS'__setstate__'
p21
S'<built-in method __setstate__ of exceptions.TypeError object at 0x3452ee0>'
p22
sS'__reduce__'
p23
S'<built-in method __reduce__ of exceptions.TypeError object at 0x3452ee0>'
p24
sS'__str__'
p25
S"<method-wrapper '__str__' of exceptions.TypeError object at 0x3452ee0>"
p26
sS'args'
p27
S'("cannot concatenate \'str\' and \'int\' objects",)'
p28
sS'__getattribute__'
p29
S"<method-wrapper '__getattribute__' of exceptions.TypeError object at 0x3452ee0>"
p30
sS'__class__'
p31
S"<type 'exceptions.TypeError'>"
p32
sS'__delattr__'
p33
S"<method-wrapper '__delattr__' of exceptions.TypeError object at 0x3452ee0>"
p34
sS'__repr__'
p35
S"<method-wrapper '__repr__' of exceptions.TypeError object at 0x3452ee0>"
p36
sS'__dict__'
p37
S'{}'
p38
sS'__doc__'
p39
S"'Inappropriate argument type.'"
p40
sS'__init__'
p41
S"<method-wrapper '__init__' of exceptions.TypeError object at 0x3452ee0>"
p42
sS'__new__'
p43
S'<built-in method __new__ of type object at 0x19fa140>'
p44
ssS'evalue'
p45
S"cannot concatenate 'str' and 'int' objects"
p46
sS'request'
p47
(dp48
S'function'
p49
S"'index'"
p50
sS'body'
p51
S'<cStringIO.StringO object at 0x32f2220>'
p52
sS'wsgi'
p53
S"<Storage {'start_response': <function <lambda> a...flate', 'PATH_INFO': '/daruri/default/index/2'}}>"
p54
sS'extension'
p55
S"'html'"
p56
sS'vars'
p57
S'<Storage {}>'
p58
sS'cid'
p59
S'None'
p60
sS'url'
p61
S'<gluon.html.XML object at 0x32f2430>'
p62
sS'raw_extension'
p63
S'None'
p64
sg27
S"['2']"
p65
sS'controller'
p66
S"'default'"
p67
sS'cookies'
p68
S"<SimpleCookie: __utma='96992031.364672225.129534...03' sessionid='8ac6b2c4407419651e81807c39ff405f'>"
p69
sS'application'
p70
S"'daruri'"
p71
sS'ajax'
p72
S'False'
p73
sS'client'
p74
S"'127.0.0.1'"
p75
sS'env'
p76
S"<Storage {'wsgi_multithread': True, 'http_accept...'54415', 'path_info': '/daruri/default/index/2'}>"
p77
sS'raw_args'
p78
S"'2'"
p79
sS'get_vars'
p80
S'<Storage {}>'
p81
sS'folder'
p82
S"'/Volumes/650Gb HD/web2py/web2py.app/Contents/Resources/applications/daruri/'"
p83
sS'now'
p84
S'datetime.datetime(2011, 2, 3, 13, 55, 34, 560615)'
p85
sS'post_vars'
p86
S'<Storage {}>'
p87
ssS'frames'
p88
(lp89
(dp90
S'file'
p91
S'/Volumes/650Gb HD/web2py/web2py.app/Contents/Resources/gluon/restricted.py'
p92
sS'dump'
p93
(dp94
sS'lnum'
p95
I188
sS'lines'
p96
(dp97
sS'call'
p98
S'(code=\'response.write(\\\'<!DOCTYPE html>\\\\n<html lang="\\\', ...t   -->    \\\\n  </body>\\\\n</html>\\\\n\\\', escape=False)\', environment={\'A\': <class \'gluon.html.A\'>, \'Auth\': <class \'gluon.tools.Auth\'>, \'B\': <class \'gluon.html.B\'>, \'BEAUTIFY\': <class \'gluon.html.BEAUTIFY\'>, \'BODY\': <class \'gluon.html.BODY\'>, \'BR\': <class \'gluon.html.BR\'>, \'CENTER\': <class \'gluon.html.CENTER\'>, \'CLEANUP\': <class \'gluon.validators.CLEANUP\'>, \'CODE\': <class \'gluon.html.CODE\'>, \'CRYPT\': <class \'gluon.validators.CRYPT\'>, ...}, layer=\'/Volumes/650Gb HD/web2py/web2py.app/Contents/Resources/applications/daruri/views/default/index.html\')'
p99
sS'func'
p100
S'restricted'
p101
sa(dp102
g91
S'/Volumes/650Gb HD/web2py/web2py.app/Contents/Resources/applications/daruri/views/default/index.html'
p103
sg93
(dp104
sg95
I101
sg96
(dp105
I96
S"response.write('\\n\\n<h1>Intrebarea ', escape=False)"
p106
sI97
S'response.write(intrebare.numar)'
p107
sI98
S"response.write('</h1>\\n\\n', escape=False)"
p108
sI99
S'response.write(form)'
p109
sI100
S'response.write(\'\\n\\n<a href="\', escape=False)'
p110
sI101
S"response.write(URL('index', args=curent+1))"
p111
sI102
S'response.write(\'">Urmatoarea</a>\\n\', escape=False)'
p112
sI103
S"response.write('\\t\\n\\t  </div>\\n\\t  <!-- content -->\\n\\n\\t  ', escape=False)"
p113
sI104
S'if right_sidebar_enabled:'
p114
sI105
S'    response.write(\'\\n          <div id="right_sidebar" \', escape=False)'
p115
sI106
S'    response.write(XML(right_sidebar_style))'
p116
sI107
S'    response.write(\' >\\n            <div style="padding: 4px;">\\n              \', escape=False)'
p117
sI108
S"    response.write('Content Right Sidebar', escape=False)"
p118
sI109
S"    response.write('\\n            </div>\\n\\t  </div><!-- right_sidebar -->\\n          ', escape=False)"
p119
sI110
S'    pass'
p120
sI111
S'response.write(\'\\n\\n\\n\\t  <div style="clear: both;"></div><!-- Clear the divs -->\\n\\t  \\n\\t</div><!-- page -->\\t\\t\\t\\t\\t\\t\\t\\n\\t\\n\\t<div id="footer">\\n\\t  \', escape=False)'
p121
sI92
S'    pass'
p122
sI93
S'response.write(\'\\n\\n\\t  <!-- content -->\\n\\t  <div id="content" \', escape=False)'
p123
sI94
S'response.write(XML(style_content))'
p124
sI95
S"response.write(' >\\n\\t    ', escape=False)"
p125
ssg98
S'()'
p126
sg100
S'<module>'
p127
sasS'pyver'
p128
S'Python 2.5.1: /Volumes/650Gb HD/web2py/web2py.app/Contents/MacOS/python'
p129
sS'session'
p130
(dp131
S'_formkey[intrebare/2]'
p132
S"'4e36ec05ce37e699dc361ed6281d7bd2'"
p133
sS'last_orderby'
p134
S'None'
p135
sS'last_query'
p136
S"'db.intrebare.id>0'"
p137
sS'_forget'
p138
S'True'
p139
sS'auth'
p140
S'None'
p141
ssS'etype'
p142
S"<type 'exceptions.TypeError'>"
p143
sS'date'
p144
S'Thu Feb  3 13:55:34 2011'
p145
sS'response'
p146
(dp147
S'status'
p148
S'200'
p149
sg51
S'<cStringIO.StringO object at 0x32f2dc0>'
p150
sg68
S"<SimpleCookie: session_id_daruri='127.0.0.1-0c77dfd1-6e6a-4c63-9a27-021af1b918e4'>"
p151
sS'_vars'
p152
S"{'curent': '2', 'form': <gluon.sqlhtml.SQLFORM object at 0x25cced0>, 'intrebare': <Row {'continut': ' Mi-ar place s\\xc4\\x83 plante...elete_record': <function <lambda> at 0x3215a70>}>}"
p153
sS'title'
p154
S"'daruri'"
p155
sS'session_file'
p156
S"<open file '/Volumes/650Gb HD/web2py/web2py.app/...4c63-9a27-021af1b918e4', mode 'rb+' at 0x25cb9b0>"
p157
sS'flash'
p158
S"''"
p159
sS'_custom_rollback'
p160
S'None'
p161
sS'session_id'
p162
S"'127.0.0.1-0c77dfd1-6e6a-4c63-9a27-021af1b918e4'"
p163
sS'headers'
p164
S"<Storage {'Expires': 'Thu, 03 Feb 2011 11:55:34 ...he, must-revalidate, post-check=0, pre-check=0'}>"
p165
sS'meta'
p166
S"<Storage {'keywords': 'web2py, python, framework... 'Web2py Enterprise Framework', 'author': 'you'}>"
p167
sS'session_filename'
p168
S"'/Volumes/650Gb HD/web2py/web2py.app/Contents/Res...ns/127.0.0.1-0c77dfd1-6e6a-4c63-9a27-021af1b918e4'"
p169
sS'postprocessing'
p170
S'[]'
p171
sS'menu'
p172
S"[(<lazyT 'Home'>, False, <gluon.html.XML object at 0x3440e90>, []), (<lazyT 'This App'>, False, <gluon.html.XML object at 0x3440130>, [(<lazyT 'Controller'>, False, <gluon.html.XML object at 0x3440290>), (<lazyT 'View'>, False, <gluon.html.XML object at 0x3440c50>), (<lazyT 'Layout'>, False, <gluon.html.XML object at 0x3440d50>), (<lazyT 'Stylesheet'>, False, <gluon.html.XML object at 0x3440950>), (<lazyT 'DB Model'>, False, <gluon.html.XML object at 0x3440ed0>), (<lazyT 'Menu Model'>, False, <gluon.html.XML object at 0x3440f10>), (<lazyT 'Database'>, False, <gluon.html.XML object at 0x34404d0>), (<lazyT 'Errors'>, False, <gluon.html.XML object at 0x3440cb0>), (<lazyT 'About'>, False, <gluon.html.XML object at 0x3440490>)]), (<lazyT 'Resources'>, False, None, [(<lazyT 'Documentation'>, False, 'http://www.web2py.com/book', [(<lazyT 'Preface'>, False, 'http://www.web2py.com/book/default/chapter/00'), (<lazyT 'Introduction'>, False, 'http://www.web2py.com/book/default/chapter/01'), (<lazyT 'Python'>, False, 'http://www.web2py.com/book/default/chapter/02'), (<lazyT 'Overview'>, False, 'http://www.web2py.com/book/default/chapter/03'), (<lazyT 'The Core'>, False, 'http://www.web2py.com/book/default/chapter/04'), (<lazyT 'The Views'>, False, 'http://www.web2py.com/book/default/chapter/05'), (<lazyT 'Database'>, False, 'http://www.web2py.com/book/default/chapter/06'), (<lazyT 'Forms and Validators'>, False, 'http://www.web2py.com/book/default/chapter/07'), (<lazyT 'Access Control'>, False, 'http://www.web2py.com/book/default/chapter/08'), (<lazyT 'Services'>, False, 'http://www.web2py.com/book/default/chapter/09'), (<lazyT 'Ajax Recipes'>, False, 'http://www.web2py.com/book/default/chapter/10'), (<lazyT 'Deployment Recipes'>, False, 'http://www.web2py.com/book/default/chapter/11'), (<lazyT 'Other Recipes'>, False, 'http://www.web2py.com/book/default/chapter/12'), (<lazyT 'Buy this book'>, False, 'http://stores.lulu.com/web2py')]), (<lazyT 'Community'>, False, None, [(<lazyT 'Groups'>, False, 'http://www.web2py.com/examples/default/usergroups'), (<lazyT 'Twitter'>, False, 'http://twitter.com/web2py'), (<lazyT 'Live chat'>, False, 'http://mibbit.com/?channel=%23web2py&server=irc.mibbit.net'), (<lazyT 'User Voice'>, False, 'http://web2py.uservoice.com/')]), (<lazyT 'Web2py'>, False, 'http://www.web2py.com', [(<lazyT 'Download'>, False, 'http://www.web2py.com/examples/default/download'), (<lazyT 'Support'>, False, 'http://www.web2py.com/examples/default/support'), (<lazyT 'Quick Examples'>, False, 'http://web2py.com/examples/default/examples'), (<lazyT 'FAQ'>, False, 'http://web2py.com/AlterEgo'), (<lazyT 'Free Applications'>, False, 'http://web2py.com/appliances'), (<lazyT 'Plugins'>, False, 'http://web2py.com/plugins'), (<lazyT 'Recipes'>, False, 'http://web2pyslices.com/'), (<lazyT 'Demo'>, False, 'http://web2py.com/demo_admin'), (<lazyT 'Semantic'>, False, 'http://web2py.com/semantic'), (<lazyT 'Layouts'>, False, 'http://web2py.com/layouts'), (<lazyT 'Videos'>, False, 'http://www.web2py.com/examples/default/videos/')])])]"
p173
sS'_view_environment'
p174
S"{'A': <class 'gluon.html.A'>, 'Auth': <class 'gluon.tools.Auth'>, 'B': <class 'gluon.html.B'>, 'BEAUTIFY': <class 'gluon.html.BEAUTIFY'>, 'BODY': <class 'gluon.html.BODY'>, 'BR': <class 'gluon.html.BR'>, 'CENTER': <class 'gluon.html.CENTER'>, 'CLEANUP': <class 'gluon.validators.CLEANUP'>, 'CODE': <class 'gluon.html.CODE'>, 'CRYPT': <class 'gluon.validators.CRYPT'>, ...}"
p175
sS'subtitle'
p176
S"<lazyT 'customize me!'>"
p177
sS'session_id_name'
p178
S"'session_id_daruri'"
p179
sS'_custom_commit'
p180
S'None'
p181
sS'_caller'
p182
S'<function <lambda> at 0x3215770>'
p183
sS'files'
p184
S'[<gluon.html.XML object at 0x326c2b0>, <gluon.html.XML object at 0x326cd90>, <gluon.html.XML object at 0x326cdf0>, <gluon.html.XML object at 0x25ccab0>, <gluon.html.XML object at 0x25ccf90>, <gluon.html.XML object at 0x326c0d0>]'
p185
sS'view'
p186
S"'default/index.html'"
p187
ssS'locals'
p188
(dp189
S'Service'
p190
S"<class 'gluon.tools.Service'>"
p191
sS'OBJECT'
p192
S"<class 'gluon.html.OBJECT'>"
p193
sS'_file'
p194
S'<gluon.html.XML object at 0x326c0d0>'
p195
sS'SQLDB'
p196
S"<class 'gluon.dal.DAL'>"
p197
sg130
S"<Storage {'_formkey[intrebare/2]': '4e36ec05ce37....intrebare.id>0', '_forget': True, 'auth': None}>"
p198
sS'LINK'
p199
S"<class 'gluon.html.LINK'>"
p200
sS'BR'
p201
S"<class 'gluon.html.BR'>"
p202
sS'local_import'
p203
S'<function <lambda> at 0x3215930>'
p204
sS'OPTGROUP'
p205
S"<class 'gluon.html.OPTGROUP'>"
p206
sS'PRE'
p207
S"<class 'gluon.html.PRE'>"
p208
sS'IS_INT_IN_RANGE'
p209
S"<class 'gluon.validators.IS_INT_IN_RANGE'>"
p210
sS'left_sidebar_enabled'
p211
g73
sS'IS_LOWER'
p212
S"<class 'gluon.validators.IS_LOWER'>"
p213
sS'IS_STRONG'
p214
S"<class 'gluon.validators.IS_STRONG'>"
p215
sS'Recaptcha'
p216
S"<class 'gluon.tools.Recaptcha'>"
p217
sS'cache'
p218
S'<gluon.cache.Cache object at 0x32cb6f0>'
p219
sS'IS_IN_DB'
p220
S"<class 'gluon.validators.IS_IN_DB'>"
p221
sS'TAG'
p222
S'<gluon.html.__TAG__ object at 0x24c35f0>'
p223
sS'_k'
p224
S'5'
sS'SQLField'
p225
S"<class 'gluon.dal.Field'>"
p226
sS'mail'
p227
S'<gluon.tools.Mail object at 0x34400f0>'
p228
sS'BODY'
p229
S"<class 'gluon.html.BODY'>"
p230
sS'IS_DATE_IN_RANGE'
p231
S"<class 'gluon.validators.IS_DATE_IN_RANGE'>"
p232
sS'TH'
p233
S"<class 'gluon.html.TH'>"
p234
sS'URL'
p235
S'<function _URL at 0x3215730>'
p236
sS'db'
p237
S"<DAL {'auth_permission': <Table {'ALL': <gluon.d...0x32cb590>}>, '_migrate': True, '_pool_size': 0}>"
p238
sS'auth'
p239
S'<gluon.tools.Auth object at 0x3440070>'
p240
sS'P'
S"<class 'gluon.html.P'>"
p241
sS'TFOOT'
p242
S"<class 'gluon.html.TFOOT'>"
p243
sS'XHTML'
p244
S"<class 'gluon.html.XHTML'>"
p245
sS'ON'
p246
g139
sS'OL'
p247
S"<class 'gluon.html.OL'>"
p248
sS'TEXTAREA'
p249
S"<class 'gluon.html.TEXTAREA'>"
p250
sS'MENU'
p251
S"<class 'gluon.html.MENU'>"
p252
sS'_file0'
p253
S"'/daruri/static/js/superfish.js'"
p254
sS'LOAD'
p255
S'<gluon.compileapp.LoadFactory object at 0x3440fb0>'
p256
sS'CODE'
p257
S"<class 'gluon.html.CODE'>"
p258
sS'HTTP'
p259
S"<class 'gluon.http.HTTP'>"
p260
sS'HR'
p261
S"<class 'gluon.html.HR'>"
p262
sS'IS_DATETIME'
p263
S"<class 'gluon.validators.IS_DATETIME'>"
p264
sS'HEAD'
p265
S"<class 'gluon.html.HEAD'>"
p266
sS'LABEL'
p267
S"<class 'gluon.html.LABEL'>"
p268
sS'CLEANUP'
p269
S"<class 'gluon.validators.CLEANUP'>"
p270
sS'plugins'
p271
S'<gluon.tools.PluginManager object at 0x25de5d0>'
p272
sS'SELECT'
p273
S"<class 'gluon.html.SELECT'>"
p274
sS'CENTER'
p275
S"<class 'gluon.html.CENTER'>"
p276
sS'left_sidebar_style'
p277
S'\'style="display: none;"\''
p278
sS'Crud'
p279
S"<class 'gluon.tools.Crud'>"
p280
sS'Auth'
p281
S"<class 'gluon.tools.Auth'>"
p282
sS'__builtins__'
p283
S"{'ArithmeticError': <type 'exceptions.ArithmeticError'>, 'AssertionError': <type 'exceptions.AssertionError'>, 'AttributeError': <type 'exceptions.AttributeError'>, 'BaseException': <type 'exceptions.BaseException'>, 'DeprecationWarning': <type 'exceptions.DeprecationWarning'>, 'EOFError': <type 'exceptions.EOFError'>, 'Ellipsis': Ellipsis, 'EnvironmentError': <type 'exceptions.EnvironmentError'>, 'Exception': <type 'exceptions.Exception'>, 'False': False, ...}"
p284
sS'IS_LIST_OF'
p285
S"<class 'gluon.validators.IS_LIST_OF'>"
p286
sS'SQLFORM'
p287
S"<class 'gluon.sqlhtml.SQLFORM'>"
p288
sS'_item'
p289
S"'author'"
p290
sS'EM'
p291
S"<class 'gluon.html.EM'>"
p292
sS'redirect'
p293
S'<function redirect at 0x247f270>'
p294
sS'FIELDSET'
p295
S"<class 'gluon.html.FIELDSET'>"
p296
sS'IS_EQUAL_TO'
p297
S"<class 'gluon.validators.IS_EQUAL_TO'>"
p298
sS'embed64'
p299
S'<function embed64 at 0x24c5af0>'
p300
sS'INPUT'
p301
S"<class 'gluon.html.INPUT'>"
p302
sS'EMBED'
p303
S"<class 'gluon.html.EMBED'>"
p304
sS'FORM'
p305
S"<class 'gluon.html.FORM'>"
p306
sS'width_content'
p307
S"'100%'"
p308
sS'H2'
p309
S"<class 'gluon.html.H2'>"
p310
sS'H3'
p311
S"<class 'gluon.html.H3'>"
p312
sS'H1'
p313
S"<class 'gluon.html.H1'>"
p314
sS'H6'
p315
S"<class 'gluon.html.H6'>"
p316
sS'H4'
p317
S"<class 'gluon.html.H4'>"
p318
sS'H5'
p319
S"<class 'gluon.html.H5'>"
p320
sS'UL'
p321
S"<class 'gluon.html.UL'>"
p322
sS'IS_UPPER'
p323
S"<class 'gluon.validators.IS_UPPER'>"
p324
sS'xmlescape'
p325
S'<function xmlescape at 0x24c5330>'
p326
sS'IS_TIME'
p327
S"<class 'gluon.validators.IS_TIME'>"
p328
sS'OPTION'
p329
S"<class 'gluon.html.OPTION'>"
p330
sS'TITLE'
p331
S"<class 'gluon.html.TITLE'>"
p332
sS'CRYPT'
p333
S"<class 'gluon.validators.CRYPT'>"
p334
sS'IS_EMPTY_OR'
p335
S"<class 'gluon.validators.IS_EMPTY_OR'>"
p336
sS'MARKMIN'
p337
S"<class 'gluon.html.MARKMIN'>"
p338
sS'service'
p339
S'<gluon.tools.Service object at 0x32cb3d0>'
p340
sS'SCRIPT'
p341
S"<class 'gluon.html.SCRIPT'>"
p342
sS'geocode'
p343
S'<function geocode at 0x25c7070>'
p344
sS'TABLE'
p345
S"<class 'gluon.html.TABLE'>"
p346
sS'IS_IPV4'
p347
S"<class 'gluon.validators.IS_IPV4'>"
p348
sS'IS_LENGTH'
p349
S"<class 'gluon.validators.IS_LENGTH'>"
p350
sS'XML'
p351
S"<class 'gluon.html.XML'>"
p352
sS'B'
S"<class 'gluon.html.B'>"
p353
sS'form'
p354
S'<gluon.sqlhtml.SQLFORM object at 0x25cced0>'
p355
sS'SQLTABLE'
p356
S"<class 'gluon.sqlhtml.SQLTABLE'>"
p357
sS'IS_MATCH'
p358
S"<class 'gluon.validators.IS_MATCH'>"
p359
sS'IS_ALPHANUMERIC'
p360
S"<class 'gluon.validators.IS_ALPHANUMERIC'>"
p361
sS'intrebare'
p362
S"<Row {'continut': ' Mi-ar place s\\xc4\\x83 plante...elete_record': <function <lambda> at 0x3215a70>}>"
p363
sS'SPAN'
p364
S"<class 'gluon.html.SPAN'>"
p365
sS'IS_SLUG'
p366
S"<class 'gluon.validators.IS_SLUG'>"
p367
sS'BEAUTIFY'
p368
S"<class 'gluon.html.BEAUTIFY'>"
p369
sS'META'
p370
S"<class 'gluon.html.META'>"
p371
sS'fetch'
p372
S'<function fetch at 0x25acef0>'
p373
sS'IS_DATE'
p374
S"<class 'gluon.validators.IS_DATE'>"
p375
sS'IS_EMAIL'
p376
S"<class 'gluon.validators.IS_EMAIL'>"
p377
sS'IS_NOT_EMPTY'
p378
S"<class 'gluon.validators.IS_NOT_EMPTY'>"
p379
sg47
S"<Storage {'function': 'index', 'body': <cStringI... 13, 55, 34, 560615), 'post_vars': <Storage {}>}>"
p380
sS'TBODY'
p381
S"<class 'gluon.html.TBODY'>"
p382
sS'Field'
p383
S"<class 'gluon.dal.Field'>"
p384
sS'Mail'
p385
S"<class 'gluon.tools.Mail'>"
p386
sS'DIV'
p387
S"<class 'gluon.html.DIV'>"
p388
sS'LEGEND'
p389
S"<class 'gluon.html.LEGEND'>"
p390
sS'IMG'
p391
S"<class 'gluon.html.IMG'>"
p392
sS'DAL'
p393
S"<class 'gluon.dal.DAL'>"
p394
sS'TT'
p395
S"<class 'gluon.html.TT'>"
p396
sS'TR'
p397
S"<class 'gluon.html.TR'>"
p398
sS'LI'
p399
S"<class 'gluon.html.LI'>"
p400
sS'right_sidebar_enabled'
p401
g73
sS'IFRAME'
p402
S"<class 'gluon.html.IFRAME'>"
p403
sS'TD'
p404
S"<class 'gluon.html.TD'>"
p405
sS'PluginManager'
p406
S"<class 'gluon.tools.PluginManager'>"
p407
sS'IS_URL'
p408
S"<class 'gluon.validators.IS_URL'>"
p409
sS'A'
S"<class 'gluon.html.A'>"
p410
sS'STYLE'
p411
S"<class 'gluon.html.STYLE'>"
p412
sS'IS_DATETIME_IN_RANGE'
p413
S"<class 'gluon.validators.IS_DATETIME_IN_RANGE'>"
p414
sS'HTML'
p415
S"<class 'gluon.html.HTML'>"
p416
sS'IS_IMAGE'
p417
S"<class 'gluon.validators.IS_IMAGE'>"
p418
sS'I'
S"<class 'gluon.html.I'>"
p419
sS'crud'
p420
S'<gluon.tools.Crud object at 0x32cb250>'
p421
sS'right_sidebar_style'
p422
S'\'style="display: none;"\''
p423
sS'IS_NOT_IN_DB'
p424
S"<class 'gluon.validators.IS_NOT_IN_DB'>"
p425
sg146
S"<Storage {'status': 200, 'body': <cStringIO.Stri...object at 0x326c0d0>], '_custom_rollback': None}>"
p426
sS'THEAD'
p427
S"<class 'gluon.html.THEAD'>"
p428
sS'IS_NULL_OR'
p429
S"<class 'gluon.validators.IS_EMPTY_OR'>"
p430
sS'prettydate'
p431
S'<function prettydate at 0x25c7730>'
p432
sS'IS_FLOAT_IN_RANGE'
p433
S"<class 'gluon.validators.IS_FLOAT_IN_RANGE'>"
p434
sS'IS_EXPR'
p435
S"<class 'gluon.validators.IS_EXPR'>"
p436
sS'T'
S'<gluon.languages.translator object at 0x32cbeb0>'
p437
sS'IS_IN_SET'
p438
S"<class 'gluon.validators.IS_IN_SET'>"
p439
sS'curent'
p440
S"'2'"
p441
sS'IS_UPLOAD_FILENAME'
p442
S"<class 'gluon.validators.IS_UPLOAD_FILENAME'>"
p443
sS'style_content'
p444
S'\'style="width: 100%"\''
p445
sS'IS_DECIMAL_IN_RANGE'
p446
S"<class 'gluon.validators.IS_DECIMAL_IN_RANGE'>"
p447
sssS'traceback'
p448
S'Traceback (most recent call last):\n  File "gluon/restricted.py", line 188, in restricted\n  File "/Volumes/650Gb HD/web2py/web2py.app/Contents/Resources/applications/daruri/views/default/index.html", line 101, in <module>\nTypeError: cannot concatenate \'str\' and \'int\' objects\n'
p449
s.